; ModuleID = '15/2072.c'
source_filename = "15/2072.c"
target datalayout = "e-m:e-p270:32:32-p271:32:32-p272:64:64-i64:64-f80:128-n8:16:32:64-S128"
target triple = "x86_64-pc-linux-gnu"

@.str = private unnamed_addr constant [3 x i8] c"%d\00", align 1

; Function Attrs: noinline nounwind uwtable
define dso_local i32 @main() #0 {
  %1 = alloca i32, align 4
  %2 = alloca i32, align 4
  %3 = alloca i32, align 4
  %4 = alloca i32, align 4
  %5 = alloca i32, align 4
  %6 = alloca i32, align 4
  %7 = alloca i32, align 4
  %8 = alloca i32, align 4
  %9 = alloca i32, align 4
  %10 = alloca i32, align 4
  store i32 0, i32* %1, align 4
  store i32 0, i32* %5, align 4
  store i32 0, i32* %6, align 4
  store i32 0, i32* %7, align 4
  store i32 0, i32* %8, align 4
  %11 = call i32 (i8*, ...) @__isoc99_scanf(i8* getelementptr inbounds ([3 x i8], [3 x i8]* @.str, i64 0, i64 0), i32* %2)
  %12 = load i32, i32* %2, align 4
  store i32 %12, i32* %5, align 4
  %13 = load i32, i32* %2, align 4
  store i32 %13, i32* %6, align 4
  store i32 1, i32* %3, align 4
  br label %14

14:                                               ; preds = %55, %0
  %15 = load i32, i32* %3, align 4
  %16 = load i32, i32* %2, align 4
  %17 = icmp sle i32 %15, %16
  br i1 %17, label %18, label %58

18:                                               ; preds = %14
  store i32 1, i32* %4, align 4
  br label %19

19:                                               ; preds = %51, %18
  %20 = load i32, i32* %4, align 4
  %21 = load i32, i32* %2, align 4
  %22 = icmp sle i32 %20, %21
  br i1 %22, label %23, label %54

23:                                               ; preds = %19
  %24 = call i32 (i8*, ...) @__isoc99_scanf(i8* getelementptr inbounds ([3 x i8], [3 x i8]* @.str, i64 0, i64 0), i32* %9)
  %25 = load i32, i32* %9, align 4
  %26 = icmp eq i32 %25, 0
  br i1 %26, label %27, label %50

27:                                               ; preds = %23
  %28 = load i32, i32* %7, align 4
  %29 = load i32, i32* %8, align 4
  %30 = add nsw i32 %28, %29
  %31 = load i32, i32* %3, align 4
  %32 = load i32, i32* %4, align 4
  %33 = add nsw i32 %31, %32
  %34 = icmp sle i32 %30, %33
  br i1 %34, label %35, label %38

35:                                               ; preds = %27
  %36 = load i32, i32* %3, align 4
  store i32 %36, i32* %7, align 4
  %37 = load i32, i32* %4, align 4
  store i32 %37, i32* %8, align 4
  br label %38

38:                                               ; preds = %35, %27
  %39 = load i32, i32* %5, align 4
  %40 = load i32, i32* %6, align 4
  %41 = add nsw i32 %39, %40
  %42 = load i32, i32* %3, align 4
  %43 = load i32, i32* %4, align 4
  %44 = add nsw i32 %42, %43
  %45 = icmp sge i32 %41, %44
  br i1 %45, label %46, label %49

46:                                               ; preds = %38
  %47 = load i32, i32* %3, align 4
  store i32 %47, i32* %5, align 4
  %48 = load i32, i32* %4, align 4
  store i32 %48, i32* %6, align 4
  br label %49

49:                                               ; preds = %46, %38
  br label %50

50:                                               ; preds = %49, %23
  br label %51

51:                                               ; preds = %50
  %52 = load i32, i32* %4, align 4
  %53 = add nsw i32 %52, 1
  store i32 %53, i32* %4, align 4
  br label %19

54:                                               ; preds = %19
  br label %55

55:                                               ; preds = %54
  %56 = load i32, i32* %3, align 4
  %57 = add nsw i32 %56, 1
  store i32 %57, i32* %3, align 4
  br label %14

58:                                               ; preds = %14
  %59 = load i32, i32* %7, align 4
  %60 = load i32, i32* %5, align 4
  %61 = sub nsw i32 %59, %60
  %62 = sub nsw i32 %61, 1
  %63 = load i32, i32* %8, align 4
  %64 = load i32, i32* %6, align 4
  %65 = sub nsw i32 %63, %64
  %66 = sub nsw i32 %65, 1
  %67 = mul nsw i32 %62, %66
  store i32 %67, i32* %10, align 4
  %68 = load i32, i32* %10, align 4
  %69 = call i32 (i8*, ...) @printf(i8* getelementptr inbounds ([3 x i8], [3 x i8]* @.str, i64 0, i64 0), i32 %68)
  ret i32 0
}

declare dso_local i32 @__isoc99_scanf(i8*, ...) #1

declare dso_local i32 @printf(i8*, ...) #1


!llvm.module.flags = !{!0}
!llvm.ident = !{!1}

!0 = !{i32 1, !"wchar_size", i32 4}
!1 = !{!"clang version 10.0.0-4ubuntu1 "}
