; ModuleID = 'source-C-CXX/14/2072.c'
source_filename = "source-C-CXX/14/2072.c"
target datalayout = "e-m:e-p270:32:32-p271:32:32-p272:64:64-i64:64-f80:128-n8:16:32:64-S128"
target triple = "x86_64-pc-linux-gnu"

@.str = private unnamed_addr constant [3 x i8] c"%d\00", align 1

; Function Attrs: nofree nounwind sspstrong uwtable
define dso_local i32 @main() local_unnamed_addr #0 {
  %1 = alloca i32, align 4
  %2 = alloca i32, align 4
  %3 = bitcast i32* %1 to i8*
  call void @llvm.lifetime.start.p0i8(i64 4, i8* nonnull %3) #3
  %4 = bitcast i32* %2 to i8*
  call void @llvm.lifetime.start.p0i8(i64 4, i8* nonnull %4) #3
  %5 = call i32 (i8*, ...) @__isoc99_scanf(i8* getelementptr inbounds ([3 x i8], [3 x i8]* @.str, i64 0, i64 0), i32* nonnull %1)
  %6 = load i32, i32* %1, align 4, !tbaa !5
  %7 = icmp slt i32 %6, 1
  br i1 %7, label %51, label %8

8:                                                ; preds = %0, %43
  %9 = phi i32 [ %44, %43 ], [ %6, %0 ]
  %10 = phi i32 [ %49, %43 ], [ 1, %0 ]
  %11 = phi i32 [ %48, %43 ], [ 0, %0 ]
  %12 = phi i32 [ %47, %43 ], [ 0, %0 ]
  %13 = phi i32 [ %46, %43 ], [ %6, %0 ]
  %14 = phi i32 [ %45, %43 ], [ %6, %0 ]
  %15 = icmp slt i32 %9, 1
  br i1 %15, label %43, label %16

16:                                               ; preds = %8, %35
  %17 = phi i32 [ %39, %35 ], [ %11, %8 ]
  %18 = phi i32 [ %38, %35 ], [ %12, %8 ]
  %19 = phi i32 [ %37, %35 ], [ %13, %8 ]
  %20 = phi i32 [ %36, %35 ], [ %14, %8 ]
  %21 = phi i32 [ %40, %35 ], [ 1, %8 ]
  %22 = call i32 (i8*, ...) @__isoc99_scanf(i8* getelementptr inbounds ([3 x i8], [3 x i8]* @.str, i64 0, i64 0), i32* nonnull %2)
  %23 = load i32, i32* %2, align 4, !tbaa !5
  %24 = icmp eq i32 %23, 0
  br i1 %24, label %25, label %35

25:                                               ; preds = %16
  %26 = add nsw i32 %17, %18
  %27 = add nuw nsw i32 %21, %10
  %28 = icmp sgt i32 %26, %27
  %29 = select i1 %28, i32 %18, i32 %10
  %30 = select i1 %28, i32 %17, i32 %21
  %31 = add nsw i32 %19, %20
  %32 = icmp slt i32 %31, %27
  %33 = select i1 %32, i32 %20, i32 %10
  %34 = select i1 %32, i32 %19, i32 %21
  br label %35

35:                                               ; preds = %25, %16
  %36 = phi i32 [ %20, %16 ], [ %33, %25 ]
  %37 = phi i32 [ %19, %16 ], [ %34, %25 ]
  %38 = phi i32 [ %18, %16 ], [ %29, %25 ]
  %39 = phi i32 [ %17, %16 ], [ %30, %25 ]
  %40 = add nuw nsw i32 %21, 1
  %41 = load i32, i32* %1, align 4, !tbaa !5
  %42 = icmp slt i32 %21, %41
  br i1 %42, label %16, label %43, !llvm.loop !9

43:                                               ; preds = %35, %8
  %44 = phi i32 [ %9, %8 ], [ %41, %35 ]
  %45 = phi i32 [ %14, %8 ], [ %36, %35 ]
  %46 = phi i32 [ %13, %8 ], [ %37, %35 ]
  %47 = phi i32 [ %12, %8 ], [ %38, %35 ]
  %48 = phi i32 [ %11, %8 ], [ %39, %35 ]
  %49 = add nuw nsw i32 %10, 1
  %50 = icmp slt i32 %10, %44
  br i1 %50, label %8, label %51, !llvm.loop !11

51:                                               ; preds = %43, %0
  %52 = phi i32 [ %6, %0 ], [ %45, %43 ]
  %53 = phi i32 [ %6, %0 ], [ %46, %43 ]
  %54 = phi i32 [ 0, %0 ], [ %47, %43 ]
  %55 = phi i32 [ 0, %0 ], [ %48, %43 ]
  %56 = xor i32 %52, -1
  %57 = add i32 %54, %56
  %58 = xor i32 %53, -1
  %59 = add i32 %55, %58
  %60 = mul nsw i32 %59, %57
  %61 = call i32 (i8*, ...) @printf(i8* nonnull dereferenceable(1) getelementptr inbounds ([3 x i8], [3 x i8]* @.str, i64 0, i64 0), i32 %60)
  call void @llvm.lifetime.end.p0i8(i64 4, i8* nonnull %4) #3
  call void @llvm.lifetime.end.p0i8(i64 4, i8* nonnull %3) #3
  ret i32 0
}

; Function Attrs: argmemonly mustprogress nofree nosync nounwind willreturn
declare void @llvm.lifetime.start.p0i8(i64 immarg, i8* nocapture) #1

; Function Attrs: nofree nounwind
declare noundef i32 @__isoc99_scanf(i8* nocapture noundef readonly, ...) local_unnamed_addr #2

; Function Attrs: nofree nounwind
declare noundef i32 @printf(i8* nocapture noundef readonly, ...) local_unnamed_addr #2

; Function Attrs: argmemonly mustprogress nofree nosync nounwind willreturn
declare void @llvm.lifetime.end.p0i8(i64 immarg, i8* nocapture) #1


!llvm.module.flags = !{!0, !1, !2, !3}
!llvm.ident = !{!4}

!0 = !{i32 1, !"wchar_size", i32 4}
!1 = !{i32 7, !"PIC Level", i32 2}
!2 = !{i32 7, !"PIE Level", i32 2}
!3 = !{i32 7, !"uwtable", i32 1}
!4 = !{!"clang version 13.0.0"}
!5 = !{!6, !6, i64 0}
!6 = !{!"int", !7, i64 0}
!7 = !{!"omnipotent char", !8, i64 0}
!8 = !{!"Simple C/C++ TBAA"}
!9 = distinct !{!9, !10}
!10 = !{!"llvm.loop.mustprogress"}
!11 = distinct !{!11, !10, !12}
!12 = !{!"llvm.loop.unswitch.partial.disable"}
